; Function Attrs: mustprogress uwtable
define noundef zeroext i1 @_ZN32pxrInternal_v0_24__pxrReserved__7SdfPath27IsValidNamespacedIdentifierERKNSt7__cxx1112basic_stringIcSt11char_traitsIcESaIcEEE(ptr noundef nonnull align 8 dereferenceable(32) %0) local_unnamed_addr #0 align 2 personality ptr @__gxx_personality_v0 {
  %2 = tail call noundef zeroext i1 @_ZNKSt7__cxx1112basic_stringIcSt11char_traitsIcESaIcEE5emptyEv(ptr noundef nonnull align 8 dereferenceable(32) %0) #20
  br i1 %2, label %.loopexit, label %3

3:                                                ; preds = %1
  %4 = tail call { i64, ptr } @_ZNKSt7__cxx1112basic_stringIcSt11char_traitsIcESaIcEEcvSt17basic_string_viewIcS2_EEv(ptr noundef nonnull align 8 dereferenceable(32) %0) #20
  %5 = extractvalue { i64, ptr } %4, 0
  %6 = icmp eq i64 %5, 0
  br i1 %6, label %.loopexit, label %_ZNSt11char_traitsIcE4findEPKcmRS1_.exit.i.preheader

_ZNSt11char_traitsIcE4findEPKcmRS1_.exit.i.preheader: ; preds = %3
  %7 = extractvalue { i64, ptr } %4, 1
  br label %_ZNSt11char_traitsIcE4findEPKcmRS1_.exit.i

_ZNSt11char_traitsIcE4findEPKcmRS1_.exit.i:       ; preds = %_ZNSt11char_traitsIcE4findEPKcmRS1_.exit.i.preheader, %_ZNKSt17basic_string_viewIcSt11char_traitsIcEE6substrEmm.exit
  %.pn23 = phi ptr [ %23, %_ZNKSt17basic_string_viewIcSt11char_traitsIcEE6substrEmm.exit ], [ %7, %_ZNSt11char_traitsIcE4findEPKcmRS1_.exit.i.preheader ]
  %.sroa.012.022 = phi i64 [ %22, %_ZNKSt17basic_string_viewIcSt11char_traitsIcEE6substrEmm.exit ], [ %5, %_ZNSt11char_traitsIcE4findEPKcmRS1_.exit.i.preheader ]
  %8 = tail call ptr @memchr(ptr noundef nonnull dereferenceable(1) %.pn23, i32 noundef 58, i64 noundef %.sroa.012.022) #20
  %.not.i = icmp eq ptr %8, null
  br i1 %.not.i, label %_ZNKSt17basic_string_viewIcSt11char_traitsIcEE4findEcm.exit.thread, label %_ZNKSt17basic_string_viewIcSt11char_traitsIcEE4findEcm.exit

_ZNKSt17basic_string_viewIcSt11char_traitsIcEE4findEcm.exit: ; preds = %_ZNSt11char_traitsIcE4findEPKcmRS1_.exit.i
  %9 = ptrtoint ptr %8 to i64
  %10 = ptrtoint ptr %.pn23 to i64
  %11 = sub i64 %9, %10
  %12 = icmp eq i64 %11, 0
  br i1 %12, label %.loopexit, label %_ZNKSt17basic_string_viewIcSt11char_traitsIcEE4findEcm.exit.thread

_ZNKSt17basic_string_viewIcSt11char_traitsIcEE4findEcm.exit.thread: ; preds = %_ZNSt11char_traitsIcE4findEPKcmRS1_.exit.i, %_ZNKSt17basic_string_viewIcSt11char_traitsIcEE4findEcm.exit
  %.0.i20 = phi i64 [ %11, %_ZNKSt17basic_string_viewIcSt11char_traitsIcEE4findEcm.exit ], [ -1, %_ZNSt11char_traitsIcE4findEPKcmRS1_.exit.i ]
  %13 = add i64 %.sroa.012.022, -1
  %14 = icmp eq i64 %.0.i20, %13
  br i1 %14, label %.loopexit, label %15

15:                                               ; preds = %_ZNKSt17basic_string_viewIcSt11char_traitsIcEE4findEcm.exit.thread
  %.sroa.speculated.i = tail call i64 @llvm.umin.i64(i64 %.sroa.012.022, i64 %.0.i20)
  %16 = tail call fastcc noundef zeroext i1 @_ZN32pxrInternal_v0_24__pxrReserved__L18_IsValidIdentifierERKSt17basic_string_viewIcSt11char_traitsIcEE(i64 %.sroa.speculated.i, ptr %.pn23)
  br i1 %16, label %17, label %.loopexit

17:                                               ; preds = %15
  %18 = icmp eq i64 %.0.i20, -1
  br i1 %18, label %.loopexit, label %19

19:                                               ; preds = %17
  %20 = add nuw i64 %.0.i20, 1
  %.not = icmp ult i64 %.0.i20, %.sroa.012.022
  br i1 %.not, label %_ZNKSt17basic_string_viewIcSt11char_traitsIcEE6substrEmm.exit, label %21

21:                                               ; preds = %19
  tail call void (ptr, ...) @_ZSt24__throw_out_of_range_fmtPKcz(ptr noundef nonnull @.str.56, ptr noundef nonnull @.str.55, i64 noundef %20, i64 noundef %.sroa.012.022) #30
  unreachable

_ZNKSt17basic_string_viewIcSt11char_traitsIcEE6substrEmm.exit: ; preds = %19
  %22 = sub nuw i64 %.sroa.012.022, %20
  %23 = getelementptr inbounds i8, ptr %.pn23, i64 %20
  %24 = icmp eq i64 %22, 0
  br i1 %24, label %.loopexit, label %_ZNSt11char_traitsIcE4findEPKcmRS1_.exit.i, !llvm.loop !168

.loopexit:                                        ; preds = %_ZNKSt17basic_string_viewIcSt11char_traitsIcEE4findEcm.exit, %_ZNKSt17basic_string_viewIcSt11char_traitsIcEE4findEcm.exit.thread, %15, %17, %_ZNKSt17basic_string_viewIcSt11char_traitsIcEE6substrEmm.exit, %3, %1
  %.0 = phi i1 [ false, %1 ], [ true, %3 ], [ false, %_ZNKSt17basic_string_viewIcSt11char_traitsIcEE4findEcm.exit ], [ false, %_ZNKSt17basic_string_viewIcSt11char_traitsIcEE4findEcm.exit.thread ], [ false, %15 ], [ true, %17 ], [ true, %_ZNKSt17basic_string_viewIcSt11char_traitsIcEE6substrEmm.exit ]
  ret i1 %.0
}